target datalayout = "e-m:e-p270:32:32-p271:32:32-p272:64:64-i64:64-i128:128-f80:128-n8:16:32:64-S128"
target triple = "x86_64-pc-linux-gnu"

%"class.ncnn::CpuSet" = type { %struct.cpu_set_t }
%struct.cpu_set_t = type { [16 x i64] }

@_ZL23g_cpu_affinity_mask_all = internal global %"class.ncnn::CpuSet" zeroinitializer, align 8
@_ZL26g_cpu_affinity_mask_little = internal global %"class.ncnn::CpuSet" zeroinitializer, align 8
@_ZL23g_cpu_affinity_mask_big = internal global %"class.ncnn::CpuSet" zeroinitializer, align 8
@_ZL10g_cpucount = internal global i32 0, align 4
@_ZL19g_physical_cpucount = internal global i32 0, align 4
@stderr = external global ptr, align 8
@.str.17 = private unnamed_addr constant [2 x i8] c"\0A\00", align 1
@.str.32 = private unnamed_addr constant [27 x i8] c"powersave %d not supported\00", align 1

; Function Attrs: mustprogress nounwind uwtable
define hidden noundef zeroext i1 @_ZNK4ncnn6CpuSet10is_enabledEi(ptr noundef nonnull align 8 dereferenceable(128) %0, i32 noundef %1) #2 align 2 {
  %3 = alloca ptr, align 8
  %4 = alloca i32, align 4
  %5 = alloca i64, align 8
  %6 = alloca i32, align 4
  store ptr %0, ptr %3, align 8, !tbaa !4
  store i32 %1, ptr %4, align 4, !tbaa !9
  %7 = load ptr, ptr %3, align 8
  call void @llvm.lifetime.start.p0(i64 8, ptr %5) #17
  %8 = load i32, ptr %4, align 4, !tbaa !9
  %9 = sext i32 %8 to i64
  store i64 %9, ptr %5, align 8, !tbaa !11
  %10 = load i64, ptr %5, align 8, !tbaa !11
  %11 = udiv i64 %10, 8
  %12 = icmp ult i64 %11, 128
  br i1 %12, label %13, label %27

13:                                               ; preds = %2
  %14 = getelementptr inbounds nuw %"class.ncnn::CpuSet", ptr %7, i32 0, i32 0
  %15 = getelementptr inbounds nuw %struct.cpu_set_t, ptr %14, i32 0, i32 0
  %16 = getelementptr inbounds [16 x i64], ptr %15, i64 0, i64 0
  %17 = load i64, ptr %5, align 8, !tbaa !11
  %18 = udiv i64 %17, 64
  %19 = getelementptr inbounds nuw i64, ptr %16, i64 %18
  %20 = load i64, ptr %19, align 8, !tbaa !11
  %21 = load i64, ptr %5, align 8, !tbaa !11
  %22 = urem i64 %21, 64
  %23 = shl i64 1, %22
  %24 = and i64 %20, %23
  %25 = icmp ne i64 %24, 0
  %26 = zext i1 %25 to i32
  br label %28

27:                                               ; preds = %2
  br label %28

28:                                               ; preds = %27, %13
  %29 = phi i32 [ %26, %13 ], [ 0, %27 ]
  store i32 %29, ptr %6, align 4, !tbaa !9
  call void @llvm.lifetime.end.p0(i64 8, ptr %5) #17
  %30 = load i32, ptr %6, align 4, !tbaa !9
  %31 = icmp ne i32 %30, 0
  ret i1 %31
}

; Function Attrs: mustprogress nounwind uwtable
define hidden noundef i32 @_ZNK4ncnn6CpuSet11num_enabledEv(ptr noundef nonnull align 8 dereferenceable(128) %0) #2 align 2 {
  %2 = alloca ptr, align 8
  %3 = alloca i32, align 4
  %4 = alloca i32, align 4
  store ptr %0, ptr %2, align 8, !tbaa !4
  %5 = load ptr, ptr %2, align 8
  call void @llvm.lifetime.start.p0(i64 4, ptr %3) #17
  store i32 0, ptr %3, align 4, !tbaa !9
  call void @llvm.lifetime.start.p0(i64 4, ptr %4) #17
  store i32 0, ptr %4, align 4, !tbaa !9
  br label %6

6:                                                ; preds = %17, %1
  %7 = load i32, ptr %4, align 4, !tbaa !9
  %8 = icmp slt i32 %7, 1024
  br i1 %8, label %10, label %9

9:                                                ; preds = %6
  call void @llvm.lifetime.end.p0(i64 4, ptr %4) #17
  br label %20

10:                                               ; preds = %6
  %11 = load i32, ptr %4, align 4, !tbaa !9
  %12 = call noundef zeroext i1 @_ZNK4ncnn6CpuSet10is_enabledEi(ptr noundef nonnull align 8 dereferenceable(128) %5, i32 noundef %11)
  br i1 %12, label %13, label %16

13:                                               ; preds = %10
  %14 = load i32, ptr %3, align 4, !tbaa !9
  %15 = add nsw i32 %14, 1
  store i32 %15, ptr %3, align 4, !tbaa !9
  br label %16

16:                                               ; preds = %13, %10
  br label %17

17:                                               ; preds = %16
  %18 = load i32, ptr %4, align 4, !tbaa !9
  %19 = add nsw i32 %18, 1
  store i32 %19, ptr %4, align 4, !tbaa !9
  br label %6, !llvm.loop !13

20:                                               ; preds = %9
  %21 = load i32, ptr %3, align 4, !tbaa !9
  call void @llvm.lifetime.end.p0(i64 4, ptr %3) #17
  ret i32 %21
}

; Function Attrs: mustprogress uwtable
define hidden noundef nonnull align 8 dereferenceable(128) ptr @_ZN4ncnn28get_cpu_thread_affinity_maskEi(i32 noundef %0) #1 {
  %2 = alloca ptr, align 8
  %3 = alloca i32, align 4
  store i32 %0, ptr %3, align 4, !tbaa !9
  call void @_ZL30try_initialize_global_cpu_infov()
  %4 = load i32, ptr %3, align 4, !tbaa !9
  %5 = icmp eq i32 %4, 0
  br i1 %5, label %6, label %7

6:                                                ; preds = %1
  store ptr @_ZL23g_cpu_affinity_mask_all, ptr %2, align 8
  br label %23

7:                                                ; preds = %1
  %8 = load i32, ptr %3, align 4, !tbaa !9
  %9 = icmp eq i32 %8, 1
  br i1 %9, label %10, label %11

10:                                               ; preds = %7
  store ptr @_ZL26g_cpu_affinity_mask_little, ptr %2, align 8
  br label %23

11:                                               ; preds = %7
  %12 = load i32, ptr %3, align 4, !tbaa !9
  %13 = icmp eq i32 %12, 2
  br i1 %13, label %14, label %15

14:                                               ; preds = %11
  store ptr @_ZL23g_cpu_affinity_mask_big, ptr %2, align 8
  br label %23

15:                                               ; preds = %11
  br label %16

16:                                               ; preds = %15
  %17 = load ptr, ptr @stderr, align 8, !tbaa !15
  %18 = load i32, ptr %3, align 4, !tbaa !9
  %19 = call i32 (ptr, ptr, ...) @fprintf(ptr noundef %17, ptr noundef @.str.32, i32 noundef %18) #17
  %20 = load ptr, ptr @stderr, align 8, !tbaa !15
  %21 = call i32 (ptr, ptr, ...) @fprintf(ptr noundef %20, ptr noundef @.str.17) #17
  br label %22

22:                                               ; preds = %16
  store ptr @_ZL23g_cpu_affinity_mask_all, ptr %2, align 8
  br label %23

23:                                               ; preds = %22, %14, %10, %6
  %24 = load ptr, ptr %2, align 8
  ret ptr %24
}

; Function Attrs: mustprogress uwtable
define hidden noundef i32 @_ZN4ncnn17get_big_cpu_countEv() #1 {
  %1 = alloca i32, align 4
  call void @_ZL30try_initialize_global_cpu_infov()
  call void @llvm.lifetime.start.p0(i64 4, ptr %1) #17
  %2 = call noundef nonnull align 8 dereferenceable(128) ptr @_ZN4ncnn28get_cpu_thread_affinity_maskEi(i32 noundef 2)
  %3 = call noundef i32 @_ZNK4ncnn6CpuSet11num_enabledEv(ptr noundef nonnull align 8 dereferenceable(128) %2)
  store i32 %3, ptr %1, align 4, !tbaa !9
  %4 = load i32, ptr %1, align 4, !tbaa !9
  %5 = icmp ne i32 %4, 0
  br i1 %5, label %6, label %8

6:                                                ; preds = %0
  %7 = load i32, ptr %1, align 4, !tbaa !9
  br label %10

8:                                                ; preds = %0
  %9 = load i32, ptr @_ZL10g_cpucount, align 4, !tbaa !9
  br label %10

10:                                               ; preds = %8, %6
  %11 = phi i32 [ %7, %6 ], [ %9, %8 ]
  call void @llvm.lifetime.end.p0(i64 4, ptr %1) #17
  ret i32 %11
}

; Function Attrs: mustprogress uwtable
define hidden noundef i32 @_ZN4ncnn26get_physical_big_cpu_countEv() #1 {
  %1 = alloca i32, align 4
  call void @_ZL30try_initialize_global_cpu_infov()
  %2 = load i32, ptr @_ZL19g_physical_cpucount, align 4, !tbaa !9
  %3 = load i32, ptr @_ZL10g_cpucount, align 4, !tbaa !9
  %4 = icmp eq i32 %2, %3
  br i1 %4, label %5, label %7

5:                                                ; preds = %0
  %6 = call noundef i32 @_ZN4ncnn17get_big_cpu_countEv()
  store i32 %6, ptr %1, align 4
  br label %11

7:                                                ; preds = %0
  %8 = load i32, ptr @_ZL10g_cpucount, align 4, !tbaa !9
  %9 = load i32, ptr @_ZL19g_physical_cpucount, align 4, !tbaa !9
  %10 = sub nsw i32 %8, %9
  store i32 %10, ptr %1, align 4
  br label %11

11:                                               ; preds = %7, %5
  %12 = load i32, ptr %1, align 4
  ret i32 %12
}